; Function Attrs: mustprogress uwtable
define void @_ZN4base14ProcessMetrics20CreateProcessMetricsEi(ptr dead_on_unwind noalias writable writeonly sret(%"class.std::unique_ptr") align 8 captures(none) %0, i32 noundef %1) local_unnamed_addr #0 align 2 personality ptr @__gxx_personality_v0 {
  %3 = tail call noalias noundef nonnull dereferenceable(48) ptr @_Znwm(i64 noundef 48) #23
  invoke void @_ZN4base14ProcessMetricsC1Ei(ptr noundef nonnull align 8 dereferenceable(44) %3, i32 noundef %1)
          to label %4 unwind label %5

4:                                                ; preds = %2
  store ptr %3, ptr %0, align 8, !tbaa !3, !alias.scope !8
  ret void

5:                                                ; preds = %2
  %6 = landingpad { ptr, i32 }
          cleanup
  tail call void @_ZdlPv(ptr noundef nonnull %3) #24
  resume { ptr, i32 } %6
}